; Function Attrs: mustprogress nofree nounwind uwtable
define noundef nonnull align 8 dereferenceable(24) ptr @_ZNK32pxrInternal_v0_24__pxrReserved__26UsdImaging_DrawModeStandin7GetPrimEv(ptr nocapture noundef nonnull readnone align 8 dereferenceable(32) %0) local_unnamed_addr #3 align 2 {
  %2 = load atomic i8, ptr @_ZGVZNK32pxrInternal_v0_24__pxrReserved__26UsdImaging_DrawModeStandin7GetPrimEvE5empty acquire, align 8
  %3 = icmp eq i8 %2, 0
  br i1 %3, label %4, label %8, !prof !4

4:                                                ; preds = %1
  %5 = tail call i32 @__cxa_guard_acquire(ptr nonnull @_ZGVZNK32pxrInternal_v0_24__pxrReserved__26UsdImaging_DrawModeStandin7GetPrimEvE5empty) #28
  %.not = icmp eq i32 %5, 0
  br i1 %.not, label %8, label %6

6:                                                ; preds = %4
  %7 = tail call i32 @__cxa_atexit(ptr nonnull @_ZN32pxrInternal_v0_24__pxrReserved__16HdSceneIndexPrimD2Ev, ptr nonnull @_ZZNK32pxrInternal_v0_24__pxrReserved__26UsdImaging_DrawModeStandin7GetPrimEvE5empty, ptr nonnull @__dso_handle) #28
  tail call void @__cxa_guard_release(ptr nonnull @_ZGVZNK32pxrInternal_v0_24__pxrReserved__26UsdImaging_DrawModeStandin7GetPrimEvE5empty) #28
  br label %8

8:                                                ; preds = %6, %4, %1
  ret ptr @_ZZNK32pxrInternal_v0_24__pxrReserved__26UsdImaging_DrawModeStandin7GetPrimEvE5empty
}